; Function Attrs: mustprogress nounwind uwtable
define dso_local void @_ZN4llvm11NamedMDNodeD2Ev(ptr noundef nonnull align 8 dereferenceable(64) %0) unnamed_addr #0 align 2 {
  %2 = getelementptr inbounds nuw i8, ptr %0, i64 56
  %3 = load ptr, ptr %2, align 8
  %4 = load ptr, ptr %3, align 8
  %5 = tail call noundef i64 @_ZNK4llvm15SmallVectorBaseIjE4sizeEv(ptr noundef nonnull align 8 dereferenceable(16) %3) #23
  %.not4.i.i.i.i = icmp eq i64 %5, 0
  br i1 %.not4.i.i.i.i, label %_ZN4llvm11NamedMDNode17dropAllReferencesEv.exit, label %.lr.ph.i.preheader.i.i.i

.lr.ph.i.preheader.i.i.i:                         ; preds = %1
  %6 = getelementptr inbounds %"class.llvm::TrackingMDRef", ptr %4, i64 %5
  br label %.lr.ph.i.i.i.i

.lr.ph.i.i.i.i:                                   ; preds = %_ZN4llvm13TrackingMDRefD2Ev.exit.i.i.i.i, %.lr.ph.i.preheader.i.i.i
  %.05.i.i.i.i = phi ptr [ %7, %_ZN4llvm13TrackingMDRefD2Ev.exit.i.i.i.i ], [ %6, %.lr.ph.i.preheader.i.i.i ]
  %7 = getelementptr inbounds i8, ptr %.05.i.i.i.i, i64 -8
  %8 = load ptr, ptr %7, align 8
  %.not.i.i.i.i.i.i = icmp eq ptr %8, null
  br i1 %.not.i.i.i.i.i.i, label %_ZN4llvm13TrackingMDRefD2Ev.exit.i.i.i.i, label %9

9:                                                ; preds = %.lr.ph.i.i.i.i
  tail call void @_ZN4llvm16MetadataTracking7untrackEPvRNS_8MetadataE(ptr noundef nonnull %7, ptr noundef nonnull align 4 dereferenceable(8) %8)
  br label %_ZN4llvm13TrackingMDRefD2Ev.exit.i.i.i.i

_ZN4llvm13TrackingMDRefD2Ev.exit.i.i.i.i:         ; preds = %9, %.lr.ph.i.i.i.i
  %.not.i.i.i.i = icmp eq ptr %4, %7
  br i1 %.not.i.i.i.i, label %_ZN4llvm11NamedMDNode17dropAllReferencesEv.exit, label %.lr.ph.i.i.i.i, !llvm.loop !437

_ZN4llvm11NamedMDNode17dropAllReferencesEv.exit:  ; preds = %_ZN4llvm13TrackingMDRefD2Ev.exit.i.i.i.i, %1
  %10 = getelementptr inbounds nuw i8, ptr %3, i64 8
  store i32 0, ptr %10, align 8
  %11 = load ptr, ptr %2, align 8
  %12 = load ptr, ptr %11, align 8
  %13 = tail call noundef i64 @_ZNK4llvm15SmallVectorBaseIjE4sizeEv(ptr noundef nonnull align 8 dereferenceable(16) %11) #23
  %.not4.i.i = icmp eq i64 %13, 0
  br i1 %.not4.i.i, label %_ZN4llvm23SmallVectorTemplateBaseINS_13TrackingMDRefELb0EE13destroy_rangeEPS1_S3_.exit.i, label %.lr.ph.i.preheader.i

.lr.ph.i.preheader.i:                             ; preds = %_ZN4llvm11NamedMDNode17dropAllReferencesEv.exit
  %14 = getelementptr inbounds %"class.llvm::TrackingMDRef", ptr %12, i64 %13
  br label %.lr.ph.i.i

.lr.ph.i.i:                                       ; preds = %_ZN4llvm13TrackingMDRefD2Ev.exit.i.i, %.lr.ph.i.preheader.i
  %.05.i.i = phi ptr [ %15, %_ZN4llvm13TrackingMDRefD2Ev.exit.i.i ], [ %14, %.lr.ph.i.preheader.i ]
  %15 = getelementptr inbounds i8, ptr %.05.i.i, i64 -8
  %16 = load ptr, ptr %15, align 8
  %.not.i.i.i.i1 = icmp eq ptr %16, null
  br i1 %.not.i.i.i.i1, label %_ZN4llvm13TrackingMDRefD2Ev.exit.i.i, label %17

17:                                               ; preds = %.lr.ph.i.i
  tail call void @_ZN4llvm16MetadataTracking7untrackEPvRNS_8MetadataE(ptr noundef nonnull %15, ptr noundef nonnull align 4 dereferenceable(8) %16)
  br label %_ZN4llvm13TrackingMDRefD2Ev.exit.i.i

_ZN4llvm13TrackingMDRefD2Ev.exit.i.i:             ; preds = %17, %.lr.ph.i.i
  %.not.i.i = icmp eq ptr %12, %15
  br i1 %.not.i.i, label %_ZN4llvm23SmallVectorTemplateBaseINS_13TrackingMDRefELb0EE13destroy_rangeEPS1_S3_.exit.i, label %.lr.ph.i.i, !llvm.loop !437

_ZN4llvm23SmallVectorTemplateBaseINS_13TrackingMDRefELb0EE13destroy_rangeEPS1_S3_.exit.i: ; preds = %_ZN4llvm13TrackingMDRefD2Ev.exit.i.i, %_ZN4llvm11NamedMDNode17dropAllReferencesEv.exit
  %18 = load ptr, ptr %11, align 8
  %19 = getelementptr inbounds i8, ptr %11, i64 16
  %20 = icmp eq ptr %18, %19
  br i1 %20, label %_ZN4llvm11SmallVectorINS_13TrackingMDRefELj4EED2Ev.exit, label %21

21:                                               ; preds = %_ZN4llvm23SmallVectorTemplateBaseINS_13TrackingMDRefELb0EE13destroy_rangeEPS1_S3_.exit.i
  tail call void @free(ptr noundef %18) #23
  br label %_ZN4llvm11SmallVectorINS_13TrackingMDRefELj4EED2Ev.exit

_ZN4llvm11SmallVectorINS_13TrackingMDRefELj4EED2Ev.exit: ; preds = %_ZN4llvm23SmallVectorTemplateBaseINS_13TrackingMDRefELb0EE13destroy_rangeEPS1_S3_.exit.i, %21
  tail call void @_ZdlPvm(ptr noundef nonnull %11, i64 noundef 48) #25
  %22 = getelementptr inbounds nuw i8, ptr %0, i64 16
  tail call void @_ZNSt7__cxx1112basic_stringIcSt11char_traitsIcESaIcEED1Ev(ptr noundef nonnull align 8 dereferenceable(32) %22) #23
  ret void
}